; Function Attrs: mustprogress uwtable
define void @_ZN3net22QuicCryptoClientStream30DoInitializeServerConfigUpdateEPNS_22QuicCryptoClientConfig11CachedStateE(ptr noundef nonnull writeonly align 8 captures(none) dereferenceable(1268) initializes((1048, 1052)) %0, ptr noundef nonnull %1) local_unnamed_addr #0 align 2 personality ptr @__gxx_personality_v0 {
  %3 = tail call noundef zeroext i1 @_ZNK3net22QuicCryptoClientConfig11CachedState7IsEmptyEv(ptr noundef nonnull align 8 dereferenceable(384) %1)
  br i1 %3, label %9, label %4

4:                                                ; preds = %2
  %5 = tail call noundef nonnull align 8 dereferenceable(32) ptr @_ZNK3net22QuicCryptoClientConfig11CachedState9signatureB5cxx11Ev(ptr noundef nonnull align 8 dereferenceable(384) %1)
  %6 = getelementptr inbounds nuw i8, ptr %5, i64 8
  %7 = load i64, ptr %6, align 8, !tbaa !147
  %8 = icmp eq i64 %7, 0
  br i1 %8, label %9, label %10

9:                                                ; preds = %4, %2
  br label %10

10:                                               ; preds = %4, %9
  %.sink = phi i32 [ 10, %9 ], [ 4, %4 ]
  %.06 = phi i32 [ 1, %9 ], [ 0, %4 ]
  %11 = getelementptr inbounds nuw i8, ptr %0, i64 1048
  store i32 %.sink, ptr %11, align 8, !tbaa !146
  %12 = load atomic volatile i64, ptr @_ZZN3net22QuicCryptoClientStream30DoInitializeServerConfigUpdateEPNS_22QuicCryptoClientConfig11CachedStateEE24atomic_histogram_pointer acquire, align 8
  %13 = inttoptr i64 %12 to ptr
  %.not = icmp eq i64 %12, 0
  br i1 %.not, label %14, label %17

14:                                               ; preds = %10
  %15 = tail call noundef ptr @_ZN4base9Histogram10FactoryGetEPKciiji(ptr noundef nonnull @.str.21, i32 noundef 1, i32 noundef 1000000, i32 noundef 50, i32 noundef 1)
  %16 = ptrtoint ptr %15 to i64
  store atomic volatile i64 %16, ptr @_ZZN3net22QuicCryptoClientStream30DoInitializeServerConfigUpdateEPNS_22QuicCryptoClientConfig11CachedStateEE24atomic_histogram_pointer release, align 8
  br label %17

17:                                               ; preds = %14, %10
  %.0 = phi ptr [ %13, %10 ], [ %15, %14 ]
  %18 = load ptr, ptr %.0, align 8, !tbaa !3
  %19 = getelementptr inbounds nuw i8, ptr %18, i64 40
  %20 = load ptr, ptr %19, align 8
  tail call void %20(ptr noundef nonnull align 8 dereferenceable(44) %.0, i32 noundef %.06)
  ret void
}